target datalayout = "e-m:e-p270:32:32-p271:32:32-p272:64:64-i64:64-i128:128-f80:128-n8:16:32:64-S128"
target triple = "x86_64-pc-linux-gnu"

%struct.rocksdb_writebatch_wi_t = type { ptr }

; Function Attrs: mustprogress uwtable
define ptr @rocksdb_writebatch_wi_create(i64 noundef %0, i8 noundef zeroext %1) #0 personality ptr @__gxx_personality_v0 {
  %3 = alloca i64, align 8
  %4 = alloca i8, align 1
  %5 = alloca ptr, align 8
  %6 = alloca ptr, align 8
  %7 = alloca i32, align 4
  store i64 %0, ptr %3, align 8, !tbaa !103
  store i8 %1, ptr %4, align 1, !tbaa !34
  call void @llvm.lifetime.start.p0(i64 8, ptr %5) #24
  %8 = call noalias noundef nonnull ptr @_Znwm(i64 noundef 8) #25
  store ptr %8, ptr %5, align 8, !tbaa !442
  %9 = call noalias noundef nonnull ptr @_Znwm(i64 noundef 16) #25
  %10 = invoke noundef ptr @_ZN7rocksdb18BytewiseComparatorEv()
          to label %11 unwind label %19

11:                                               ; preds = %2
  %12 = load i64, ptr %3, align 8, !tbaa !103
  %13 = load i8, ptr %4, align 1, !tbaa !34
  %14 = icmp ne i8 %13, 0
  invoke void @_ZN7rocksdb19WriteBatchWithIndexC1EPKNS_10ComparatorEmbmm(ptr noundef nonnull align 8 dereferenceable(16) %9, ptr noundef %10, i64 noundef %12, i1 noundef zeroext %14, i64 noundef 0, i64 noundef 0)
          to label %15 unwind label %19

15:                                               ; preds = %11
  %16 = load ptr, ptr %5, align 8, !tbaa !442
  %17 = getelementptr inbounds nuw %struct.rocksdb_writebatch_wi_t, ptr %16, i32 0, i32 0
  store ptr %9, ptr %17, align 8, !tbaa !444
  %18 = load ptr, ptr %5, align 8, !tbaa !442
  call void @llvm.lifetime.end.p0(i64 8, ptr %5) #24
  ret ptr %18

19:                                               ; preds = %11, %2
  %20 = landingpad { ptr, i32 }
          cleanup
  %21 = extractvalue { ptr, i32 } %20, 0
  store ptr %21, ptr %6, align 8
  %22 = extractvalue { ptr, i32 } %20, 1
  store i32 %22, ptr %7, align 4
  call void @_ZdlPvm(ptr noundef %9, i64 noundef 16) #28
  call void @llvm.lifetime.end.p0(i64 8, ptr %5) #24
  br label %23

23:                                               ; preds = %19
  %24 = load ptr, ptr %6, align 8
  %25 = load i32, ptr %7, align 4
  %26 = insertvalue { ptr, i32 } poison, ptr %24, 0
  %27 = insertvalue { ptr, i32 } %26, i32 %25, 1
  resume { ptr, i32 } %27
}