; Function Attrs: mustprogress uwtable
define noalias noundef nonnull ptr @rocksdb_writebatch_wi_create(i64 noundef %0, i8 noundef zeroext %1) local_unnamed_addr #0 personality ptr @__gxx_personality_v0 {
  %3 = tail call noalias noundef nonnull dereferenceable(8) ptr @_Znwm(i64 noundef 8) #46
  %4 = tail call noalias noundef nonnull dereferenceable(16) ptr @_Znwm(i64 noundef 16) #46
  %5 = invoke noundef ptr @_ZN7rocksdb18BytewiseComparatorEv()
          to label %6 unwind label %9

6:                                                ; preds = %2
  %7 = icmp ne i8 %1, 0
  invoke void @_ZN7rocksdb19WriteBatchWithIndexC1EPKNS_10ComparatorEmbmm(ptr noundef nonnull align 8 dereferenceable(16) %4, ptr noundef %5, i64 noundef %0, i1 noundef zeroext %7, i64 noundef 0, i64 noundef 0)
          to label %8 unwind label %9

8:                                                ; preds = %6
  store ptr %4, ptr %3, align 8, !tbaa !410
  ret ptr %3

9:                                                ; preds = %6, %2
  %10 = landingpad { ptr, i32 }
          cleanup
  tail call void @_ZdlPvm(ptr noundef nonnull %4, i64 noundef 16) #45
  resume { ptr, i32 } %10
}